target datalayout = "e-m:e-p270:32:32-p271:32:32-p272:64:64-i64:64-i128:128-f80:128-n8:16:32:64-S128"
target triple = "x86_64-pc-linux-gnu"

%struct.jv = type { i8, i8, i16, i32, %union.anon }
%union.anon = type { ptr }

@.str.155 = private unnamed_addr constant [11 x i8] c"%s (%s) %s\00", align 1
@.str.168 = private unnamed_addr constant [14 x i8] c"has no length\00", align 1

; Function Attrs: nounwind uwtable
define internal { i64, ptr } @type_error(i64 %0, ptr %1, ptr noundef %2) #0 {
  %4 = alloca %struct.jv, align 8
  %5 = alloca %struct.jv, align 8
  %6 = alloca ptr, align 8
  %7 = alloca [15 x i8], align 1
  %8 = alloca ptr, align 8
  %9 = alloca %struct.jv, align 8
  %10 = getelementptr inbounds nuw { i64, ptr }, ptr %5, i32 0, i32 0
  store i64 %0, ptr %10, align 8
  %11 = getelementptr inbounds nuw { i64, ptr }, ptr %5, i32 0, i32 1
  store ptr %1, ptr %11, align 8
  store ptr %2, ptr %6, align 8, !tbaa !12
  call void @llvm.lifetime.start.p0(i64 15, ptr %7) #10
  call void @llvm.lifetime.start.p0(i64 8, ptr %8) #10
  %12 = getelementptr inbounds nuw { i64, ptr }, ptr %5, i32 0, i32 0
  %13 = load i64, ptr %12, align 8
  %14 = getelementptr inbounds nuw { i64, ptr }, ptr %5, i32 0, i32 1
  %15 = load ptr, ptr %14, align 8
  %16 = call i32 @jv_get_kind(i64 %13, ptr %15)
  %17 = call ptr @jv_kind_name(i32 noundef %16)
  store ptr %17, ptr %8, align 8, !tbaa !12
  %18 = load ptr, ptr %8, align 8, !tbaa !12
  %19 = getelementptr inbounds [15 x i8], ptr %7, i64 0, i64 0
  %20 = getelementptr inbounds nuw { i64, ptr }, ptr %5, i32 0, i32 0
  %21 = load i64, ptr %20, align 8
  %22 = getelementptr inbounds nuw { i64, ptr }, ptr %5, i32 0, i32 1
  %23 = load ptr, ptr %22, align 8
  %24 = call ptr @jv_dump_string_trunc(i64 %21, ptr %23, ptr noundef %19, i64 noundef 15)
  %25 = load ptr, ptr %6, align 8, !tbaa !12
  %26 = call { i64, ptr } (ptr, ...) @jv_string_fmt(ptr noundef @.str.155, ptr noundef %18, ptr noundef %24, ptr noundef %25)
  %27 = getelementptr inbounds nuw { i64, ptr }, ptr %9, i32 0, i32 0
  %28 = extractvalue { i64, ptr } %26, 0
  store i64 %28, ptr %27, align 8
  %29 = getelementptr inbounds nuw { i64, ptr }, ptr %9, i32 0, i32 1
  %30 = extractvalue { i64, ptr } %26, 1
  store ptr %30, ptr %29, align 8
  %31 = getelementptr inbounds nuw { i64, ptr }, ptr %9, i32 0, i32 0
  %32 = load i64, ptr %31, align 8
  %33 = getelementptr inbounds nuw { i64, ptr }, ptr %9, i32 0, i32 1
  %34 = load ptr, ptr %33, align 8
  %35 = call { i64, ptr } @jv_invalid_with_msg(i64 %32, ptr %34)
  %36 = getelementptr inbounds nuw { i64, ptr }, ptr %4, i32 0, i32 0
  %37 = extractvalue { i64, ptr } %35, 0
  store i64 %37, ptr %36, align 8
  %38 = getelementptr inbounds nuw { i64, ptr }, ptr %4, i32 0, i32 1
  %39 = extractvalue { i64, ptr } %35, 1
  store ptr %39, ptr %38, align 8
  call void @llvm.lifetime.end.p0(i64 8, ptr %8) #10
  call void @llvm.lifetime.end.p0(i64 15, ptr %7) #10
  %40 = load { i64, ptr }, ptr %4, align 8
  ret { i64, ptr } %40
}

; Function Attrs: nounwind uwtable
define internal { i64, ptr } @f_length(ptr noundef %0, i64 %1, ptr %2) #0 {
  %4 = alloca %struct.jv, align 8
  %5 = alloca %struct.jv, align 8
  %6 = alloca ptr, align 8
  %7 = getelementptr inbounds nuw { i64, ptr }, ptr %5, i32 0, i32 0
  store i64 %1, ptr %7, align 8
  %8 = getelementptr inbounds nuw { i64, ptr }, ptr %5, i32 0, i32 1
  store ptr %2, ptr %8, align 8
  store ptr %0, ptr %6, align 8, !tbaa !25
  %9 = getelementptr inbounds nuw { i64, ptr }, ptr %5, i32 0, i32 0
  %10 = load i64, ptr %9, align 8
  %11 = getelementptr inbounds nuw { i64, ptr }, ptr %5, i32 0, i32 1
  %12 = load ptr, ptr %11, align 8
  %13 = call i32 @jv_get_kind(i64 %10, ptr %12)
  %14 = icmp eq i32 %13, 6
  br i1 %14, label %15, label %27

15:                                               ; preds = %3
  %16 = getelementptr inbounds nuw { i64, ptr }, ptr %5, i32 0, i32 0
  %17 = load i64, ptr %16, align 8
  %18 = getelementptr inbounds nuw { i64, ptr }, ptr %5, i32 0, i32 1
  %19 = load ptr, ptr %18, align 8
  %20 = call i32 @jv_array_length(i64 %17, ptr %19)
  %21 = sitofp i32 %20 to double
  %22 = call { i64, ptr } @jv_number(double noundef %21)
  %23 = getelementptr inbounds nuw { i64, ptr }, ptr %4, i32 0, i32 0
  %24 = extractvalue { i64, ptr } %22, 0
  store i64 %24, ptr %23, align 8
  %25 = getelementptr inbounds nuw { i64, ptr }, ptr %4, i32 0, i32 1
  %26 = extractvalue { i64, ptr } %22, 1
  store ptr %26, ptr %25, align 8
  br label %115

27:                                               ; preds = %3
  %28 = getelementptr inbounds nuw { i64, ptr }, ptr %5, i32 0, i32 0
  %29 = load i64, ptr %28, align 8
  %30 = getelementptr inbounds nuw { i64, ptr }, ptr %5, i32 0, i32 1
  %31 = load ptr, ptr %30, align 8
  %32 = call i32 @jv_get_kind(i64 %29, ptr %31)
  %33 = icmp eq i32 %32, 7
  br i1 %33, label %34, label %46

34:                                               ; preds = %27
  %35 = getelementptr inbounds nuw { i64, ptr }, ptr %5, i32 0, i32 0
  %36 = load i64, ptr %35, align 8
  %37 = getelementptr inbounds nuw { i64, ptr }, ptr %5, i32 0, i32 1
  %38 = load ptr, ptr %37, align 8
  %39 = call i32 @jv_object_length(i64 %36, ptr %38)
  %40 = sitofp i32 %39 to double
  %41 = call { i64, ptr } @jv_number(double noundef %40)
  %42 = getelementptr inbounds nuw { i64, ptr }, ptr %4, i32 0, i32 0
  %43 = extractvalue { i64, ptr } %41, 0
  store i64 %43, ptr %42, align 8
  %44 = getelementptr inbounds nuw { i64, ptr }, ptr %4, i32 0, i32 1
  %45 = extractvalue { i64, ptr } %41, 1
  store ptr %45, ptr %44, align 8
  br label %115

46:                                               ; preds = %27
  %47 = getelementptr inbounds nuw { i64, ptr }, ptr %5, i32 0, i32 0
  %48 = load i64, ptr %47, align 8
  %49 = getelementptr inbounds nuw { i64, ptr }, ptr %5, i32 0, i32 1
  %50 = load ptr, ptr %49, align 8
  %51 = call i32 @jv_get_kind(i64 %48, ptr %50)
  %52 = icmp eq i32 %51, 5
  br i1 %52, label %53, label %65

53:                                               ; preds = %46
  %54 = getelementptr inbounds nuw { i64, ptr }, ptr %5, i32 0, i32 0
  %55 = load i64, ptr %54, align 8
  %56 = getelementptr inbounds nuw { i64, ptr }, ptr %5, i32 0, i32 1
  %57 = load ptr, ptr %56, align 8
  %58 = call i32 @jv_string_length_codepoints(i64 %55, ptr %57)
  %59 = sitofp i32 %58 to double
  %60 = call { i64, ptr } @jv_number(double noundef %59)
  %61 = getelementptr inbounds nuw { i64, ptr }, ptr %4, i32 0, i32 0
  %62 = extractvalue { i64, ptr } %60, 0
  store i64 %62, ptr %61, align 8
  %63 = getelementptr inbounds nuw { i64, ptr }, ptr %4, i32 0, i32 1
  %64 = extractvalue { i64, ptr } %60, 1
  store ptr %64, ptr %63, align 8
  br label %115

65:                                               ; preds = %46
  %66 = getelementptr inbounds nuw { i64, ptr }, ptr %5, i32 0, i32 0
  %67 = load i64, ptr %66, align 8
  %68 = getelementptr inbounds nuw { i64, ptr }, ptr %5, i32 0, i32 1
  %69 = load ptr, ptr %68, align 8
  %70 = call i32 @jv_get_kind(i64 %67, ptr %69)
  %71 = icmp eq i32 %70, 4
  br i1 %71, label %72, label %88

72:                                               ; preds = %65
  %73 = getelementptr inbounds nuw { i64, ptr }, ptr %5, i32 0, i32 0
  %74 = load i64, ptr %73, align 8
  %75 = getelementptr inbounds nuw { i64, ptr }, ptr %5, i32 0, i32 1
  %76 = load ptr, ptr %75, align 8
  %77 = call double @jv_number_value(i64 %74, ptr %76)
  %78 = call double @llvm.fabs.f64(double %77)
  %79 = call { i64, ptr } @jv_number(double noundef %78)
  %80 = getelementptr inbounds nuw { i64, ptr }, ptr %4, i32 0, i32 0
  %81 = extractvalue { i64, ptr } %79, 0
  store i64 %81, ptr %80, align 8
  %82 = getelementptr inbounds nuw { i64, ptr }, ptr %4, i32 0, i32 1
  %83 = extractvalue { i64, ptr } %79, 1
  store ptr %83, ptr %82, align 8
  %84 = getelementptr inbounds nuw { i64, ptr }, ptr %5, i32 0, i32 0
  %85 = load i64, ptr %84, align 8
  %86 = getelementptr inbounds nuw { i64, ptr }, ptr %5, i32 0, i32 1
  %87 = load ptr, ptr %86, align 8
  call void @jv_free(i64 %85, ptr %87)
  br label %115

88:                                               ; preds = %65
  %89 = getelementptr inbounds nuw { i64, ptr }, ptr %5, i32 0, i32 0
  %90 = load i64, ptr %89, align 8
  %91 = getelementptr inbounds nuw { i64, ptr }, ptr %5, i32 0, i32 1
  %92 = load ptr, ptr %91, align 8
  %93 = call i32 @jv_get_kind(i64 %90, ptr %92)
  %94 = icmp eq i32 %93, 1
  br i1 %94, label %95, label %105

95:                                               ; preds = %88
  %96 = getelementptr inbounds nuw { i64, ptr }, ptr %5, i32 0, i32 0
  %97 = load i64, ptr %96, align 8
  %98 = getelementptr inbounds nuw { i64, ptr }, ptr %5, i32 0, i32 1
  %99 = load ptr, ptr %98, align 8
  call void @jv_free(i64 %97, ptr %99)
  %100 = call { i64, ptr } @jv_number(double noundef 0.000000e+00)
  %101 = getelementptr inbounds nuw { i64, ptr }, ptr %4, i32 0, i32 0
  %102 = extractvalue { i64, ptr } %100, 0
  store i64 %102, ptr %101, align 8
  %103 = getelementptr inbounds nuw { i64, ptr }, ptr %4, i32 0, i32 1
  %104 = extractvalue { i64, ptr } %100, 1
  store ptr %104, ptr %103, align 8
  br label %115

105:                                              ; preds = %88
  %106 = getelementptr inbounds nuw { i64, ptr }, ptr %5, i32 0, i32 0
  %107 = load i64, ptr %106, align 8
  %108 = getelementptr inbounds nuw { i64, ptr }, ptr %5, i32 0, i32 1
  %109 = load ptr, ptr %108, align 8
  %110 = call { i64, ptr } @type_error(i64 %107, ptr %109, ptr noundef @.str.168)
  %111 = getelementptr inbounds nuw { i64, ptr }, ptr %4, i32 0, i32 0
  %112 = extractvalue { i64, ptr } %110, 0
  store i64 %112, ptr %111, align 8
  %113 = getelementptr inbounds nuw { i64, ptr }, ptr %4, i32 0, i32 1
  %114 = extractvalue { i64, ptr } %110, 1
  store ptr %114, ptr %113, align 8
  br label %115

115:                                              ; preds = %105, %95, %72, %53, %34, %15
  %116 = load { i64, ptr }, ptr %4, align 8
  ret { i64, ptr } %116
}