; Function Attrs: nounwind uwtable
define internal { i64, ptr } @f_length(ptr readnone captures(none) %0, i64 %1, ptr %2) #0 {
  %4 = alloca [15 x i8], align 1
  %5 = tail call i32 @jv_get_kind(i64 %1, ptr %2) #14
  %6 = icmp eq i32 %5, 6
  br i1 %6, label %7, label %11

7:                                                ; preds = %3
  %8 = tail call i32 @jv_array_length(i64 %1, ptr %2) #14
  %9 = sitofp i32 %8 to double
  %10 = tail call { i64, ptr } @jv_number(double noundef %9) #14
  br label %45

11:                                               ; preds = %3
  %12 = tail call i32 @jv_get_kind(i64 %1, ptr %2) #14
  %13 = icmp eq i32 %12, 7
  br i1 %13, label %14, label %18

14:                                               ; preds = %11
  %15 = tail call i32 @jv_object_length(i64 %1, ptr %2) #14
  %16 = sitofp i32 %15 to double
  %17 = tail call { i64, ptr } @jv_number(double noundef %16) #14
  br label %45

18:                                               ; preds = %11
  %19 = tail call i32 @jv_get_kind(i64 %1, ptr %2) #14
  %20 = icmp eq i32 %19, 5
  br i1 %20, label %21, label %25

21:                                               ; preds = %18
  %22 = tail call i32 @jv_string_length_codepoints(i64 %1, ptr %2) #14
  %23 = sitofp i32 %22 to double
  %24 = tail call { i64, ptr } @jv_number(double noundef %23) #14
  br label %45

25:                                               ; preds = %18
  %26 = tail call i32 @jv_get_kind(i64 %1, ptr %2) #14
  %27 = icmp eq i32 %26, 4
  br i1 %27, label %28, label %32

28:                                               ; preds = %25
  %29 = tail call double @jv_number_value(i64 %1, ptr %2) #14
  %30 = tail call double @llvm.fabs.f64(double %29)
  %31 = tail call { i64, ptr } @jv_number(double noundef %30) #14
  tail call void @jv_free(i64 %1, ptr %2) #14
  br label %45

32:                                               ; preds = %25
  %33 = tail call i32 @jv_get_kind(i64 %1, ptr %2) #14
  %34 = icmp eq i32 %33, 1
  br i1 %34, label %35, label %37

35:                                               ; preds = %32
  tail call void @jv_free(i64 %1, ptr %2) #14
  %36 = tail call { i64, ptr } @jv_number(double noundef 0.000000e+00) #14
  br label %45

37:                                               ; preds = %32
  call void @llvm.lifetime.start.p0(i64 15, ptr nonnull %4) #14
  %38 = tail call i32 @jv_get_kind(i64 %1, ptr %2) #14
  %39 = tail call ptr @jv_kind_name(i32 noundef %38) #14
  %40 = call ptr @jv_dump_string_trunc(i64 %1, ptr %2, ptr noundef nonnull %4, i64 noundef 15) #14
  %41 = call { i64, ptr } (ptr, ...) @jv_string_fmt(ptr noundef nonnull @.str.155, ptr noundef %39, ptr noundef %40, ptr noundef nonnull @.str.168) #14
  %42 = extractvalue { i64, ptr } %41, 0
  %43 = extractvalue { i64, ptr } %41, 1
  %44 = call { i64, ptr } @jv_invalid_with_msg(i64 %42, ptr %43) #14
  call void @llvm.lifetime.end.p0(i64 15, ptr nonnull %4) #14
  br label %45

45:                                               ; preds = %37, %35, %28, %21, %14, %7
  %.pn = phi { i64, ptr } [ %10, %7 ], [ %17, %14 ], [ %24, %21 ], [ %31, %28 ], [ %36, %35 ], [ %44, %37 ]
  ret { i64, ptr } %.pn
}